; Function Attrs: nounwind uwtable
define internal range(i32 -1, 1) i32 @OnUpdateDefaultCharset(ptr noundef %0, ptr noundef %1, ptr noundef %2, ptr noundef %3, ptr noundef %4, i32 noundef %5) #2 {
  %7 = getelementptr inbounds nuw i8, ptr %1, i64 24
  %8 = getelementptr inbounds nuw i8, ptr %1, i64 16
  %9 = load i64, ptr %8, align 8, !tbaa !52
  %10 = tail call ptr @memchr(ptr noundef nonnull %7, i32 noundef 0, i64 noundef %9) #29
  %.not = icmp eq ptr %10, null
  br i1 %.not, label %11, label %17

11:                                               ; preds = %6
  %12 = tail call ptr @strpbrk(ptr noundef nonnull %7, ptr noundef nonnull @.str.290) #29
  %.not11 = icmp eq ptr %12, null
  br i1 %.not11, label %13, label %17

13:                                               ; preds = %11
  %14 = tail call i32 @OnUpdateString(ptr noundef %0, ptr noundef nonnull %1, ptr noundef %2, ptr noundef %3, ptr noundef %4, i32 noundef %5) #28
  %15 = load ptr, ptr @php_internal_encoding_changed, align 8, !tbaa !148
  %.not12 = icmp eq ptr %15, null
  br i1 %.not12, label %17, label %16

16:                                               ; preds = %13
  tail call void %15() #28
  br label %17

17:                                               ; preds = %13, %16, %6, %11
  %.0 = phi i32 [ -1, %11 ], [ -1, %6 ], [ 0, %16 ], [ 0, %13 ]
  ret i32 %.0
}